target datalayout = "e-m:e-p270:32:32-p271:32:32-p272:64:64-i64:64-i128:128-f80:128-n8:16:32:64-S128"
target triple = "x86_64-pc-linux-gnu"

%struct.evp_cipher_info_st = type { ptr, [16 x i8] }

@.str.1 = private unnamed_addr constant [32 x i8] c"../openssl/crypto/pem/pem_lib.c\00", align 1
@.str.2 = private unnamed_addr constant [10 x i8] c"ENCRYPTED\00", align 1
@.str.10 = private unnamed_addr constant [11 x i8] c"Proc-Type:\00", align 1
@__func__.PEM_get_EVP_CIPHER_INFO = private unnamed_addr constant [24 x i8] c"PEM_get_EVP_CIPHER_INFO\00", align 1
@.str.11 = private unnamed_addr constant [3 x i8] c" \09\00", align 1
@.str.12 = private unnamed_addr constant [5 x i8] c" \09\0D\0A\00", align 1
@.str.13 = private unnamed_addr constant [4 x i8] c" \09\0D\00", align 1
@.str.14 = private unnamed_addr constant [10 x i8] c"DEK-Info:\00", align 1
@.str.15 = private unnamed_addr constant [4 x i8] c" \09,\00", align 1

; Function Attrs: nounwind uwtable
define i32 @PEM_get_EVP_CIPHER_INFO(ptr noundef %0, ptr noundef %1) #0 {
  %3 = alloca i32, align 4
  %4 = alloca ptr, align 8
  %5 = alloca ptr, align 8
  %6 = alloca ptr, align 8
  %7 = alloca i32, align 4
  %8 = alloca ptr, align 8
  %9 = alloca i8, align 1
  %10 = alloca i32, align 4
  store ptr %0, ptr %4, align 8, !tbaa !3
  store ptr %1, ptr %5, align 8, !tbaa !29
  call void @llvm.lifetime.start.p0(i64 8, ptr %6) #8
  store ptr null, ptr %6, align 8, !tbaa !25
  call void @llvm.lifetime.start.p0(i64 4, ptr %7) #8
  call void @llvm.lifetime.start.p0(i64 8, ptr %8) #8
  call void @llvm.lifetime.start.p0(i64 1, ptr %9) #8
  %11 = load ptr, ptr %5, align 8, !tbaa !29
  %12 = getelementptr inbounds nuw %struct.evp_cipher_info_st, ptr %11, i32 0, i32 0
  store ptr null, ptr %12, align 8, !tbaa !31
  %13 = load ptr, ptr %5, align 8, !tbaa !29
  %14 = getelementptr inbounds nuw %struct.evp_cipher_info_st, ptr %13, i32 0, i32 1
  %15 = getelementptr inbounds [16 x i8], ptr %14, i64 0, i64 0
  call void @llvm.memset.p0.i64(ptr align 8 %15, i8 0, i64 16, i1 false)
  %16 = load ptr, ptr %4, align 8, !tbaa !3
  %17 = icmp eq ptr %16, null
  br i1 %17, label %28, label %18

18:                                               ; preds = %2
  %19 = load ptr, ptr %4, align 8, !tbaa !3
  %20 = load i8, ptr %19, align 1, !tbaa !13
  %21 = sext i8 %20 to i32
  %22 = icmp eq i32 %21, 0
  br i1 %22, label %28, label %23

23:                                               ; preds = %18
  %24 = load ptr, ptr %4, align 8, !tbaa !3
  %25 = load i8, ptr %24, align 1, !tbaa !13
  %26 = sext i8 %25 to i32
  %27 = icmp eq i32 %26, 10
  br i1 %27, label %28, label %29

28:                                               ; preds = %23, %18, %2
  store i32 1, ptr %3, align 4
  store i32 1, ptr %10, align 4
  br label %150

29:                                               ; preds = %23
  %30 = load ptr, ptr %4, align 8, !tbaa !3
  %31 = call i32 @strncmp(ptr noundef %30, ptr noundef @.str.10, i64 noundef 10) #9
  %32 = icmp eq i32 %31, 0
  br i1 %32, label %33, label %36

33:                                               ; preds = %29
  %34 = load ptr, ptr %4, align 8, !tbaa !3
  %35 = getelementptr inbounds nuw i8, ptr %34, i64 10
  store ptr %35, ptr %4, align 8, !tbaa !3
  br i1 true, label %38, label %37

36:                                               ; preds = %29
  br i1 false, label %38, label %37

37:                                               ; preds = %36, %33
  call void @ERR_new()
  call void @ERR_set_debug(ptr noundef @.str.1, i32 noundef 531, ptr noundef @__func__.PEM_get_EVP_CIPHER_INFO)
  call void (i32, i32, ptr, ...) @ERR_set_error(i32 noundef 9, i32 noundef 107, ptr noundef null)
  store i32 0, ptr %3, align 4
  store i32 1, ptr %10, align 4
  br label %150

38:                                               ; preds = %36, %33
  %39 = load ptr, ptr %4, align 8, !tbaa !3
  %40 = call i64 @strspn(ptr noundef %39, ptr noundef @.str.11) #9
  %41 = load ptr, ptr %4, align 8, !tbaa !3
  %42 = getelementptr inbounds nuw i8, ptr %41, i64 %40
  store ptr %42, ptr %4, align 8, !tbaa !3
  %43 = load ptr, ptr %4, align 8, !tbaa !3
  %44 = getelementptr inbounds nuw i8, ptr %43, i32 1
  store ptr %44, ptr %4, align 8, !tbaa !3
  %45 = load i8, ptr %43, align 1, !tbaa !13
  %46 = sext i8 %45 to i32
  %47 = icmp ne i32 %46, 52
  br i1 %47, label %54, label %48

48:                                               ; preds = %38
  %49 = load ptr, ptr %4, align 8, !tbaa !3
  %50 = getelementptr inbounds nuw i8, ptr %49, i32 1
  store ptr %50, ptr %4, align 8, !tbaa !3
  %51 = load i8, ptr %49, align 1, !tbaa !13
  %52 = sext i8 %51 to i32
  %53 = icmp ne i32 %52, 44
  br i1 %53, label %54, label %55

54:                                               ; preds = %48, %38
  store i32 0, ptr %3, align 4
  store i32 1, ptr %10, align 4
  br label %150

55:                                               ; preds = %48
  %56 = load ptr, ptr %4, align 8, !tbaa !3
  %57 = call i64 @strspn(ptr noundef %56, ptr noundef @.str.11) #9
  %58 = load ptr, ptr %4, align 8, !tbaa !3
  %59 = getelementptr inbounds nuw i8, ptr %58, i64 %57
  store ptr %59, ptr %4, align 8, !tbaa !3
  %60 = load ptr, ptr %4, align 8, !tbaa !3
  %61 = call i32 @strncmp(ptr noundef %60, ptr noundef @.str.2, i64 noundef 9) #9
  %62 = icmp eq i32 %61, 0
  br i1 %62, label %63, label %66

63:                                               ; preds = %55
  %64 = load ptr, ptr %4, align 8, !tbaa !3
  %65 = getelementptr inbounds nuw i8, ptr %64, i64 9
  store ptr %65, ptr %4, align 8, !tbaa !3
  br i1 true, label %67, label %71

66:                                               ; preds = %55
  br i1 false, label %67, label %71

67:                                               ; preds = %66, %63
  %68 = load ptr, ptr %4, align 8, !tbaa !3
  %69 = call i64 @strspn(ptr noundef %68, ptr noundef @.str.12) #9
  %70 = icmp eq i64 %69, 0
  br i1 %70, label %71, label %72

71:                                               ; preds = %67, %66, %63
  call void @ERR_new()
  call void @ERR_set_debug(ptr noundef @.str.1, i32 noundef 543, ptr noundef @__func__.PEM_get_EVP_CIPHER_INFO)
  call void (i32, i32, ptr, ...) @ERR_set_error(i32 noundef 9, i32 noundef 106, ptr noundef null)
  store i32 0, ptr %3, align 4
  store i32 1, ptr %10, align 4
  br label %150

72:                                               ; preds = %67
  %73 = load ptr, ptr %4, align 8, !tbaa !3
  %74 = call i64 @strspn(ptr noundef %73, ptr noundef @.str.13) #9
  %75 = load ptr, ptr %4, align 8, !tbaa !3
  %76 = getelementptr inbounds nuw i8, ptr %75, i64 %74
  store ptr %76, ptr %4, align 8, !tbaa !3
  %77 = load ptr, ptr %4, align 8, !tbaa !3
  %78 = getelementptr inbounds nuw i8, ptr %77, i32 1
  store ptr %78, ptr %4, align 8, !tbaa !3
  %79 = load i8, ptr %77, align 1, !tbaa !13
  %80 = sext i8 %79 to i32
  %81 = icmp ne i32 %80, 10
  br i1 %81, label %82, label %83

82:                                               ; preds = %72
  call void @ERR_new()
  call void @ERR_set_debug(ptr noundef @.str.1, i32 noundef 548, ptr noundef @__func__.PEM_get_EVP_CIPHER_INFO)
  call void (i32, i32, ptr, ...) @ERR_set_error(i32 noundef 9, i32 noundef 112, ptr noundef null)
  store i32 0, ptr %3, align 4
  store i32 1, ptr %10, align 4
  br label %150

83:                                               ; preds = %72
  %84 = load ptr, ptr %4, align 8, !tbaa !3
  %85 = call i32 @strncmp(ptr noundef %84, ptr noundef @.str.14, i64 noundef 9) #9
  %86 = icmp eq i32 %85, 0
  br i1 %86, label %87, label %90

87:                                               ; preds = %83
  %88 = load ptr, ptr %4, align 8, !tbaa !3
  %89 = getelementptr inbounds nuw i8, ptr %88, i64 9
  store ptr %89, ptr %4, align 8, !tbaa !3
  br i1 true, label %92, label %91

90:                                               ; preds = %83
  br i1 false, label %92, label %91

91:                                               ; preds = %90, %87
  call void @ERR_new()
  call void @ERR_set_debug(ptr noundef @.str.1, i32 noundef 557, ptr noundef @__func__.PEM_get_EVP_CIPHER_INFO)
  call void (i32, i32, ptr, ...) @ERR_set_error(i32 noundef 9, i32 noundef 105, ptr noundef null)
  store i32 0, ptr %3, align 4
  store i32 1, ptr %10, align 4
  br label %150

92:                                               ; preds = %90, %87
  %93 = load ptr, ptr %4, align 8, !tbaa !3
  %94 = call i64 @strspn(ptr noundef %93, ptr noundef @.str.11) #9
  %95 = load ptr, ptr %4, align 8, !tbaa !3
  %96 = getelementptr inbounds nuw i8, ptr %95, i64 %94
  store ptr %96, ptr %4, align 8, !tbaa !3
  %97 = load ptr, ptr %4, align 8, !tbaa !3
  store ptr %97, ptr %8, align 8, !tbaa !3
  %98 = load ptr, ptr %4, align 8, !tbaa !3
  %99 = call i64 @strcspn(ptr noundef %98, ptr noundef @.str.15) #9
  %100 = load ptr, ptr %4, align 8, !tbaa !3
  %101 = getelementptr inbounds nuw i8, ptr %100, i64 %99
  store ptr %101, ptr %4, align 8, !tbaa !3
  %102 = load ptr, ptr %4, align 8, !tbaa !3
  %103 = load i8, ptr %102, align 1, !tbaa !13
  store i8 %103, ptr %9, align 1, !tbaa !13
  %104 = load ptr, ptr %4, align 8, !tbaa !3
  store i8 0, ptr %104, align 1, !tbaa !13
  %105 = load ptr, ptr %8, align 8, !tbaa !3
  %106 = call ptr @EVP_get_cipherbyname(ptr noundef %105)
  store ptr %106, ptr %6, align 8, !tbaa !25
  %107 = load ptr, ptr %5, align 8, !tbaa !29
  %108 = getelementptr inbounds nuw %struct.evp_cipher_info_st, ptr %107, i32 0, i32 0
  store ptr %106, ptr %108, align 8, !tbaa !31
  %109 = load i8, ptr %9, align 1, !tbaa !13
  %110 = load ptr, ptr %4, align 8, !tbaa !3
  store i8 %109, ptr %110, align 1, !tbaa !13
  %111 = load ptr, ptr %4, align 8, !tbaa !3
  %112 = call i64 @strspn(ptr noundef %111, ptr noundef @.str.11) #9
  %113 = load ptr, ptr %4, align 8, !tbaa !3
  %114 = getelementptr inbounds nuw i8, ptr %113, i64 %112
  store ptr %114, ptr %4, align 8, !tbaa !3
  %115 = load ptr, ptr %6, align 8, !tbaa !25
  %116 = icmp eq ptr %115, null
  br i1 %116, label %117, label %118

117:                                              ; preds = %92
  call void @ERR_new()
  call void @ERR_set_debug(ptr noundef @.str.1, i32 noundef 575, ptr noundef @__func__.PEM_get_EVP_CIPHER_INFO)
  call void (i32, i32, ptr, ...) @ERR_set_error(i32 noundef 9, i32 noundef 114, ptr noundef null)
  store i32 0, ptr %3, align 4
  store i32 1, ptr %10, align 4
  br label %150

118:                                              ; preds = %92
  %119 = load ptr, ptr %6, align 8, !tbaa !25
  %120 = call i32 @EVP_CIPHER_get_iv_length(ptr noundef %119)
  store i32 %120, ptr %7, align 4, !tbaa !8
  %121 = load i32, ptr %7, align 4, !tbaa !8
  %122 = icmp sgt i32 %121, 0
  br i1 %122, label %123, label %130

123:                                              ; preds = %118
  %124 = load ptr, ptr %4, align 8, !tbaa !3
  %125 = getelementptr inbounds nuw i8, ptr %124, i32 1
  store ptr %125, ptr %4, align 8, !tbaa !3
  %126 = load i8, ptr %124, align 1, !tbaa !13
  %127 = sext i8 %126 to i32
  %128 = icmp ne i32 %127, 44
  br i1 %128, label %129, label %130

129:                                              ; preds = %123
  call void @ERR_new()
  call void @ERR_set_debug(ptr noundef @.str.1, i32 noundef 580, ptr noundef @__func__.PEM_get_EVP_CIPHER_INFO)
  call void (i32, i32, ptr, ...) @ERR_set_error(i32 noundef 9, i32 noundef 129, ptr noundef null)
  store i32 0, ptr %3, align 4
  store i32 1, ptr %10, align 4
  br label %150

130:                                              ; preds = %123, %118
  %131 = load i32, ptr %7, align 4, !tbaa !8
  %132 = icmp eq i32 %131, 0
  br i1 %132, label %133, label %139

133:                                              ; preds = %130
  %134 = load ptr, ptr %4, align 8, !tbaa !3
  %135 = load i8, ptr %134, align 1, !tbaa !13
  %136 = sext i8 %135 to i32
  %137 = icmp eq i32 %136, 44
  br i1 %137, label %138, label %139

138:                                              ; preds = %133
  call void @ERR_new()
  call void @ERR_set_debug(ptr noundef @.str.1, i32 noundef 583, ptr noundef @__func__.PEM_get_EVP_CIPHER_INFO)
  call void (i32, i32, ptr, ...) @ERR_set_error(i32 noundef 9, i32 noundef 130, ptr noundef null)
  store i32 0, ptr %3, align 4
  store i32 1, ptr %10, align 4
  br label %150

139:                                              ; preds = %133, %130
  br label %140

140:                                              ; preds = %139
  %141 = load ptr, ptr %5, align 8, !tbaa !29
  %142 = getelementptr inbounds nuw %struct.evp_cipher_info_st, ptr %141, i32 0, i32 1
  %143 = getelementptr inbounds [16 x i8], ptr %142, i64 0, i64 0
  %144 = load ptr, ptr %6, align 8, !tbaa !25
  %145 = call i32 @EVP_CIPHER_get_iv_length(ptr noundef %144)
  %146 = call i32 @load_iv(ptr noundef %4, ptr noundef %143, i32 noundef %145)
  %147 = icmp ne i32 %146, 0
  br i1 %147, label %149, label %148

148:                                              ; preds = %140
  store i32 0, ptr %3, align 4
  store i32 1, ptr %10, align 4
  br label %150

149:                                              ; preds = %140
  store i32 1, ptr %3, align 4
  store i32 1, ptr %10, align 4
  br label %150

150:                                              ; preds = %149, %148, %138, %129, %117, %91, %82, %71, %54, %37, %28
  call void @llvm.lifetime.end.p0(i64 1, ptr %9) #8
  call void @llvm.lifetime.end.p0(i64 8, ptr %8) #8
  call void @llvm.lifetime.end.p0(i64 4, ptr %7) #8
  call void @llvm.lifetime.end.p0(i64 8, ptr %6) #8
  %151 = load i32, ptr %3, align 4
  ret i32 %151
}