; Function Attrs: nounwind uwtable
define range(i32 0, 2) i32 @PEM_get_EVP_CIPHER_INFO(ptr noundef %0, ptr noundef captures(none) initializes((0, 24)) %1) local_unnamed_addr #0 {
  %3 = alloca ptr, align 8
  %4 = getelementptr inbounds nuw i8, ptr %1, i64 8
  %5 = icmp eq ptr %0, null
  tail call void @llvm.memset.p0.i64(ptr noundef nonnull align 8 dereferenceable(24) %1, i8 0, i64 24, i1 false)
  br i1 %5, label %68, label %6

6:                                                ; preds = %2
  %7 = load i8, ptr %0, align 1, !tbaa !3
  switch i8 %7, label %8 [
    i8 0, label %68
    i8 10, label %68
  ]

8:                                                ; preds = %6
  %9 = tail call i32 @strncmp(ptr noundef nonnull dereferenceable(1) %0, ptr noundef nonnull dereferenceable(11) @.str.10, i64 noundef 10) #9
  %10 = icmp eq i32 %9, 0
  br i1 %10, label %11, label %16

11:                                               ; preds = %8
  %12 = getelementptr inbounds nuw i8, ptr %0, i64 10
  %13 = tail call i64 @strspn(ptr noundef nonnull %12, ptr noundef nonnull @.str.11) #9
  %14 = getelementptr inbounds nuw i8, ptr %12, i64 %13
  %15 = load i8, ptr %14, align 1, !tbaa !3
  %.not = icmp eq i8 %15, 52
  br i1 %.not, label %17, label %68

16:                                               ; preds = %8
  tail call void @ERR_new() #10
  tail call void @ERR_set_debug(ptr noundef nonnull @.str.1, i32 noundef 531, ptr noundef nonnull @__func__.PEM_get_EVP_CIPHER_INFO) #10
  tail call void (i32, i32, ptr, ...) @ERR_set_error(i32 noundef 9, i32 noundef 107, ptr noundef null) #10
  br label %68

17:                                               ; preds = %11
  %18 = getelementptr inbounds nuw i8, ptr %14, i64 1
  %19 = load i8, ptr %18, align 1, !tbaa !3
  %.not14 = icmp eq i8 %19, 44
  br i1 %.not14, label %20, label %68

20:                                               ; preds = %17
  %21 = getelementptr inbounds nuw i8, ptr %14, i64 2
  %22 = tail call i64 @strspn(ptr noundef nonnull %21, ptr noundef nonnull @.str.11) #9
  %23 = getelementptr inbounds nuw i8, ptr %21, i64 %22
  %24 = tail call i32 @strncmp(ptr noundef nonnull dereferenceable(1) %23, ptr noundef nonnull dereferenceable(10) @.str.2, i64 noundef 9) #9
  %25 = icmp eq i32 %24, 0
  br i1 %25, label %26, label %30

26:                                               ; preds = %20
  %27 = getelementptr inbounds nuw i8, ptr %23, i64 9
  %28 = tail call i64 @strspn(ptr noundef nonnull %27, ptr noundef nonnull @.str.12) #9
  %29 = icmp eq i64 %28, 0
  br i1 %29, label %30, label %31

30:                                               ; preds = %20, %26
  tail call void @ERR_new() #10
  tail call void @ERR_set_debug(ptr noundef nonnull @.str.1, i32 noundef 543, ptr noundef nonnull @__func__.PEM_get_EVP_CIPHER_INFO) #10
  tail call void (i32, i32, ptr, ...) @ERR_set_error(i32 noundef 9, i32 noundef 106, ptr noundef null) #10
  br label %68

31:                                               ; preds = %26
  %32 = tail call i64 @strspn(ptr noundef nonnull %27, ptr noundef nonnull @.str.13) #9
  %33 = getelementptr inbounds nuw i8, ptr %27, i64 %32
  %34 = load i8, ptr %33, align 1, !tbaa !3
  %.not15 = icmp eq i8 %34, 10
  br i1 %.not15, label %36, label %35

35:                                               ; preds = %31
  tail call void @ERR_new() #10
  tail call void @ERR_set_debug(ptr noundef nonnull @.str.1, i32 noundef 548, ptr noundef nonnull @__func__.PEM_get_EVP_CIPHER_INFO) #10
  tail call void (i32, i32, ptr, ...) @ERR_set_error(i32 noundef 9, i32 noundef 112, ptr noundef null) #10
  br label %68

36:                                               ; preds = %31
  %37 = getelementptr inbounds nuw i8, ptr %33, i64 1
  %38 = tail call i32 @strncmp(ptr noundef nonnull dereferenceable(1) %37, ptr noundef nonnull dereferenceable(10) @.str.14, i64 noundef 9) #9
  %39 = icmp eq i32 %38, 0
  br i1 %39, label %40, label %51

40:                                               ; preds = %36
  %41 = getelementptr inbounds nuw i8, ptr %33, i64 10
  %42 = tail call i64 @strspn(ptr noundef nonnull %41, ptr noundef nonnull @.str.11) #9
  %43 = getelementptr inbounds nuw i8, ptr %41, i64 %42
  %44 = tail call i64 @strcspn(ptr noundef nonnull %43, ptr noundef nonnull @.str.15) #9
  %45 = getelementptr inbounds nuw i8, ptr %43, i64 %44
  %46 = load i8, ptr %45, align 1, !tbaa !3
  store i8 0, ptr %45, align 1, !tbaa !3
  %47 = tail call ptr @EVP_get_cipherbyname(ptr noundef nonnull %43) #10
  store ptr %47, ptr %1, align 8, !tbaa !21
  store i8 %46, ptr %45, align 1, !tbaa !3
  %48 = tail call i64 @strspn(ptr noundef nonnull %45, ptr noundef nonnull @.str.11) #9
  %49 = getelementptr inbounds nuw i8, ptr %45, i64 %48
  store ptr %49, ptr %3, align 8, !tbaa !8
  %50 = icmp eq ptr %47, null
  br i1 %50, label %52, label %53

51:                                               ; preds = %36
  tail call void @ERR_new() #10
  tail call void @ERR_set_debug(ptr noundef nonnull @.str.1, i32 noundef 557, ptr noundef nonnull @__func__.PEM_get_EVP_CIPHER_INFO) #10
  tail call void (i32, i32, ptr, ...) @ERR_set_error(i32 noundef 9, i32 noundef 105, ptr noundef null) #10
  br label %68

52:                                               ; preds = %40
  tail call void @ERR_new() #10
  tail call void @ERR_set_debug(ptr noundef nonnull @.str.1, i32 noundef 575, ptr noundef nonnull @__func__.PEM_get_EVP_CIPHER_INFO) #10
  tail call void (i32, i32, ptr, ...) @ERR_set_error(i32 noundef 9, i32 noundef 114, ptr noundef null) #10
  br label %68

53:                                               ; preds = %40
  %54 = tail call i32 @EVP_CIPHER_get_iv_length(ptr noundef nonnull %47) #10
  %55 = icmp sgt i32 %54, 0
  br i1 %55, label %56, label %60

56:                                               ; preds = %53
  %57 = getelementptr inbounds nuw i8, ptr %49, i64 1
  store ptr %57, ptr %3, align 8, !tbaa !8
  %58 = load i8, ptr %49, align 1, !tbaa !3
  %.not16 = icmp eq i8 %58, 44
  br i1 %.not16, label %.thread, label %59

59:                                               ; preds = %56
  tail call void @ERR_new() #10
  tail call void @ERR_set_debug(ptr noundef nonnull @.str.1, i32 noundef 580, ptr noundef nonnull @__func__.PEM_get_EVP_CIPHER_INFO) #10
  tail call void (i32, i32, ptr, ...) @ERR_set_error(i32 noundef 9, i32 noundef 129, ptr noundef null) #10
  br label %68

60:                                               ; preds = %53
  %61 = icmp eq i32 %54, 0
  br i1 %61, label %62, label %.thread

62:                                               ; preds = %60
  %63 = load i8, ptr %49, align 1, !tbaa !3
  %64 = icmp eq i8 %63, 44
  br i1 %64, label %65, label %.thread

65:                                               ; preds = %62
  tail call void @ERR_new() #10
  tail call void @ERR_set_debug(ptr noundef nonnull @.str.1, i32 noundef 583, ptr noundef nonnull @__func__.PEM_get_EVP_CIPHER_INFO) #10
  tail call void (i32, i32, ptr, ...) @ERR_set_error(i32 noundef 9, i32 noundef 130, ptr noundef null) #10
  br label %68

.thread:                                          ; preds = %56, %60, %62
  %66 = tail call i32 @EVP_CIPHER_get_iv_length(ptr noundef nonnull %47) #10
  %67 = call fastcc i32 @load_iv(ptr noundef %3, ptr noundef nonnull %4, i32 noundef %66)
  br label %68

68:                                               ; preds = %.thread, %11, %17, %2, %6, %6, %65, %59, %52, %51, %35, %30, %16
  %.0 = phi i32 [ 0, %30 ], [ 0, %35 ], [ 0, %52 ], [ 0, %59 ], [ 0, %65 ], [ 0, %51 ], [ 0, %16 ], [ 1, %6 ], [ 1, %6 ], [ 1, %2 ], [ 0, %17 ], [ 0, %11 ], [ %67, %.thread ]
  ret i32 %.0
}